; Function Attrs: nofree nounwind uwtable
define range(i32 0, 2) i32 @stbi__start_write_file(ptr noundef writeonly captures(none) initializes((0, 16)) %0, ptr noundef readonly captures(none) %1) local_unnamed_addr #2 {
  %3 = tail call noalias noundef ptr @fopen(ptr noundef readonly %1, ptr noundef nonnull @.str)
  store ptr @stbi__stdio_write, ptr %0, align 8, !tbaa !7
  %4 = getelementptr inbounds nuw i8, ptr %0, i64 8
  store ptr %3, ptr %4, align 8, !tbaa !10
  %5 = icmp ne ptr %3, null
  %6 = zext i1 %5 to i32
  ret i32 %6
}